target datalayout = "e-m:e-p270:32:32-p271:32:32-p272:64:64-i64:64-i128:128-f80:128-n8:16:32:64-S128"
target triple = "x86_64-pc-linux-gnu"

; Function Attrs: nounwind uwtable
define internal i32 @pg_euctw_verifychar(ptr noundef %0, i32 noundef %1) #1 {
  %3 = alloca i32, align 4
  %4 = alloca ptr, align 8
  %5 = alloca i32, align 4
  %6 = alloca i32, align 4
  %7 = alloca i8, align 1
  %8 = alloca i8, align 1
  %9 = alloca i32, align 4
  store ptr %0, ptr %4, align 8
  store i32 %1, ptr %5, align 4
  call void @llvm.lifetime.start.p0(i64 4, ptr %6) #7
  call void @llvm.lifetime.start.p0(i64 1, ptr %7) #7
  call void @llvm.lifetime.start.p0(i64 1, ptr %8) #7
  %10 = load ptr, ptr %4, align 8
  %11 = getelementptr inbounds nuw i8, ptr %10, i32 1
  store ptr %11, ptr %4, align 8
  %12 = load i8, ptr %10, align 1
  store i8 %12, ptr %7, align 1
  %13 = load i8, ptr %7, align 1
  %14 = zext i8 %13 to i32
  switch i32 %14, label %58 [
    i32 142, label %15
    i32 143, label %57
  ]

15:                                               ; preds = %2
  store i32 4, ptr %6, align 4
  %16 = load i32, ptr %6, align 4
  %17 = load i32, ptr %5, align 4
  %18 = icmp sgt i32 %16, %17
  br i1 %18, label %19, label %20

19:                                               ; preds = %15
  store i32 -1, ptr %3, align 4
  store i32 1, ptr %9, align 4
  br label %85

20:                                               ; preds = %15
  %21 = load ptr, ptr %4, align 8
  %22 = getelementptr inbounds nuw i8, ptr %21, i32 1
  store ptr %22, ptr %4, align 8
  %23 = load i8, ptr %21, align 1
  store i8 %23, ptr %8, align 1
  %24 = load i8, ptr %8, align 1
  %25 = zext i8 %24 to i32
  %26 = icmp slt i32 %25, 161
  br i1 %26, label %31, label %27

27:                                               ; preds = %20
  %28 = load i8, ptr %8, align 1
  %29 = zext i8 %28 to i32
  %30 = icmp sgt i32 %29, 167
  br i1 %30, label %31, label %32

31:                                               ; preds = %27, %20
  store i32 -1, ptr %3, align 4
  store i32 1, ptr %9, align 4
  br label %85

32:                                               ; preds = %27
  %33 = load ptr, ptr %4, align 8
  %34 = getelementptr inbounds nuw i8, ptr %33, i32 1
  store ptr %34, ptr %4, align 8
  %35 = load i8, ptr %33, align 1
  store i8 %35, ptr %8, align 1
  %36 = load i8, ptr %8, align 1
  %37 = zext i8 %36 to i32
  %38 = icmp sge i32 %37, 161
  br i1 %38, label %39, label %43

39:                                               ; preds = %32
  %40 = load i8, ptr %8, align 1
  %41 = zext i8 %40 to i32
  %42 = icmp sle i32 %41, 254
  br i1 %42, label %44, label %43

43:                                               ; preds = %39, %32
  store i32 -1, ptr %3, align 4
  store i32 1, ptr %9, align 4
  br label %85

44:                                               ; preds = %39
  %45 = load ptr, ptr %4, align 8
  %46 = getelementptr inbounds nuw i8, ptr %45, i32 1
  store ptr %46, ptr %4, align 8
  %47 = load i8, ptr %45, align 1
  store i8 %47, ptr %8, align 1
  %48 = load i8, ptr %8, align 1
  %49 = zext i8 %48 to i32
  %50 = icmp sge i32 %49, 161
  br i1 %50, label %51, label %55

51:                                               ; preds = %44
  %52 = load i8, ptr %8, align 1
  %53 = zext i8 %52 to i32
  %54 = icmp sle i32 %53, 254
  br i1 %54, label %56, label %55

55:                                               ; preds = %51, %44
  store i32 -1, ptr %3, align 4
  store i32 1, ptr %9, align 4
  br label %85

56:                                               ; preds = %51
  br label %83

57:                                               ; preds = %2
  store i32 -1, ptr %3, align 4
  store i32 1, ptr %9, align 4
  br label %85

58:                                               ; preds = %2
  %59 = load i8, ptr %7, align 1
  %60 = zext i8 %59 to i32
  %61 = and i32 %60, 128
  %62 = icmp ne i32 %61, 0
  br i1 %62, label %63, label %81

63:                                               ; preds = %58
  store i32 2, ptr %6, align 4
  %64 = load i32, ptr %6, align 4
  %65 = load i32, ptr %5, align 4
  %66 = icmp sgt i32 %64, %65
  br i1 %66, label %67, label %68

67:                                               ; preds = %63
  store i32 -1, ptr %3, align 4
  store i32 1, ptr %9, align 4
  br label %85

68:                                               ; preds = %63
  %69 = load ptr, ptr %4, align 8
  %70 = getelementptr inbounds nuw i8, ptr %69, i32 1
  store ptr %70, ptr %4, align 8
  %71 = load i8, ptr %69, align 1
  store i8 %71, ptr %8, align 1
  %72 = load i8, ptr %8, align 1
  %73 = zext i8 %72 to i32
  %74 = icmp sge i32 %73, 161
  br i1 %74, label %75, label %79

75:                                               ; preds = %68
  %76 = load i8, ptr %8, align 1
  %77 = zext i8 %76 to i32
  %78 = icmp sle i32 %77, 254
  br i1 %78, label %80, label %79

79:                                               ; preds = %75, %68
  store i32 -1, ptr %3, align 4
  store i32 1, ptr %9, align 4
  br label %85

80:                                               ; preds = %75
  br label %82

81:                                               ; preds = %58
  store i32 1, ptr %6, align 4
  br label %82

82:                                               ; preds = %81, %80
  br label %83

83:                                               ; preds = %82, %56
  %84 = load i32, ptr %6, align 4
  store i32 %84, ptr %3, align 4
  store i32 1, ptr %9, align 4
  br label %85

85:                                               ; preds = %83, %79, %67, %57, %55, %43, %31, %19
  call void @llvm.lifetime.end.p0(i64 1, ptr %8) #7
  call void @llvm.lifetime.end.p0(i64 1, ptr %7) #7
  call void @llvm.lifetime.end.p0(i64 4, ptr %6) #7
  %86 = load i32, ptr %3, align 4
  ret i32 %86
}

; Function Attrs: nounwind uwtable
define internal i32 @pg_euctw_verifystr(ptr noundef %0, i32 noundef %1) #1 {
  %3 = alloca ptr, align 8
  %4 = alloca i32, align 4
  %5 = alloca ptr, align 8
  %6 = alloca i32, align 4
  %7 = alloca i32, align 4
  store ptr %0, ptr %3, align 8
  store i32 %1, ptr %4, align 4
  call void @llvm.lifetime.start.p0(i64 8, ptr %5) #7
  %8 = load ptr, ptr %3, align 8
  store ptr %8, ptr %5, align 8
  br label %9

9:                                                ; preds = %43, %2
  %10 = load i32, ptr %4, align 4
  %11 = icmp sgt i32 %10, 0
  br i1 %11, label %12, label %44

12:                                               ; preds = %9
  call void @llvm.lifetime.start.p0(i64 4, ptr %6) #7
  %13 = load ptr, ptr %3, align 8
  %14 = load i8, ptr %13, align 1
  %15 = zext i8 %14 to i32
  %16 = and i32 %15, 128
  %17 = icmp ne i32 %16, 0
  br i1 %17, label %25, label %18

18:                                               ; preds = %12
  %19 = load ptr, ptr %3, align 8
  %20 = load i8, ptr %19, align 1
  %21 = zext i8 %20 to i32
  %22 = icmp eq i32 %21, 0
  br i1 %22, label %23, label %24

23:                                               ; preds = %18
  store i32 3, ptr %7, align 4
  br label %41

24:                                               ; preds = %18
  store i32 1, ptr %6, align 4
  br label %33

25:                                               ; preds = %12
  %26 = load ptr, ptr %3, align 8
  %27 = load i32, ptr %4, align 4
  %28 = call i32 @pg_euctw_verifychar(ptr noundef %26, i32 noundef %27)
  store i32 %28, ptr %6, align 4
  %29 = load i32, ptr %6, align 4
  %30 = icmp eq i32 %29, -1
  br i1 %30, label %31, label %32

31:                                               ; preds = %25
  store i32 3, ptr %7, align 4
  br label %41

32:                                               ; preds = %25
  br label %33

33:                                               ; preds = %32, %24
  %34 = load i32, ptr %6, align 4
  %35 = load ptr, ptr %3, align 8
  %36 = sext i32 %34 to i64
  %37 = getelementptr inbounds i8, ptr %35, i64 %36
  store ptr %37, ptr %3, align 8
  %38 = load i32, ptr %6, align 4
  %39 = load i32, ptr %4, align 4
  %40 = sub i32 %39, %38
  store i32 %40, ptr %4, align 4
  store i32 0, ptr %7, align 4
  br label %41

41:                                               ; preds = %33, %31, %23
  call void @llvm.lifetime.end.p0(i64 4, ptr %6) #7
  %42 = load i32, ptr %7, align 4
  switch i32 %42, label %51 [
    i32 0, label %43
    i32 3, label %44
  ]

43:                                               ; preds = %41
  br label %9, !llvm.loop !12

44:                                               ; preds = %41, %9
  %45 = load ptr, ptr %3, align 8
  %46 = load ptr, ptr %5, align 8
  %47 = ptrtoint ptr %45 to i64
  %48 = ptrtoint ptr %46 to i64
  %49 = sub i64 %47, %48
  %50 = trunc i64 %49 to i32
  store i32 1, ptr %7, align 4
  call void @llvm.lifetime.end.p0(i64 8, ptr %5) #7
  ret i32 %50

51:                                               ; preds = %41
  unreachable
}