; Function Attrs: nofree norecurse nosync nounwind memory(argmem: read) uwtable
define internal i32 @pg_euctw_verifystr(ptr noundef %0, i32 noundef %1) #5 {
  %3 = icmp sgt i32 %1, 0
  br i1 %3, label %.lr.ph, label %.thread

.lr.ph:                                           ; preds = %2, %27
  %.01424 = phi ptr [ %29, %27 ], [ %0, %2 ]
  %.01523 = phi i32 [ %30, %27 ], [ %1, %2 ]
  %4 = load i8, ptr %.01424, align 1
  %.not = icmp sgt i8 %4, -1
  br i1 %.not, label %5, label %7

5:                                                ; preds = %.lr.ph
  %6 = icmp eq i8 %4, 0
  br i1 %6, label %.thread, label %27

7:                                                ; preds = %.lr.ph
  %8 = getelementptr inbounds nuw i8, ptr %.01424, i64 1
  switch i8 %4, label %22 [
    i8 -114, label %9
    i8 -113, label %.thread
  ]

9:                                                ; preds = %7
  %10 = icmp samesign ult i32 %.01523, 4
  br i1 %10, label %.thread, label %11

11:                                               ; preds = %9
  %12 = load i8, ptr %8, align 1
  %13 = add i8 %12, 88
  %or.cond.i = icmp ult i8 %13, -7
  br i1 %or.cond.i, label %.thread, label %14

14:                                               ; preds = %11
  %15 = getelementptr inbounds nuw i8, ptr %.01424, i64 2
  %16 = load i8, ptr %15, align 1
  %17 = add i8 %16, 95
  %or.cond5.i = icmp ult i8 %17, 94
  br i1 %or.cond5.i, label %18, label %.thread

18:                                               ; preds = %14
  %19 = getelementptr inbounds nuw i8, ptr %.01424, i64 3
  %20 = load i8, ptr %19, align 1
  %21 = add i8 %20, 95
  %or.cond8.i = icmp ult i8 %21, 94
  br i1 %or.cond8.i, label %27, label %.thread

22:                                               ; preds = %7
  %23 = icmp eq i32 %.01523, 1
  br i1 %23, label %.thread, label %24

24:                                               ; preds = %22
  %25 = load i8, ptr %8, align 1
  %26 = add i8 %25, 95
  %or.cond11.i = icmp ult i8 %26, 94
  br i1 %or.cond11.i, label %27, label %.thread

27:                                               ; preds = %5, %18, %24
  %.013 = phi i32 [ 1, %5 ], [ 2, %24 ], [ 4, %18 ]
  %28 = zext nneg i32 %.013 to i64
  %29 = getelementptr inbounds nuw i8, ptr %.01424, i64 %28
  %30 = sub nsw i32 %.01523, %.013
  %31 = icmp sgt i32 %30, 0
  br i1 %31, label %.lr.ph, label %.thread

.thread:                                          ; preds = %27, %5, %9, %11, %14, %18, %7, %22, %24, %2
  %.014.lcssa = phi ptr [ %0, %2 ], [ %.01424, %24 ], [ %.01424, %22 ], [ %.01424, %7 ], [ %.01424, %18 ], [ %.01424, %14 ], [ %.01424, %11 ], [ %.01424, %9 ], [ %.01424, %5 ], [ %29, %27 ]
  %32 = ptrtoint ptr %.014.lcssa to i64
  %33 = ptrtoint ptr %0 to i64
  %34 = sub i64 %32, %33
  %35 = trunc i64 %34 to i32
  ret i32 %35
}